target datalayout = "e-m:e-p270:32:32-p271:32:32-p272:64:64-i64:64-i128:128-f80:128-n8:16:32:64-S128"
target triple = "x86_64-pc-linux-gnu"

%struct.rb_data_type_struct = type { ptr, %struct.anon, ptr, ptr, i64 }
%struct.anon = type { ptr, ptr, ptr, ptr, [1 x ptr] }

@eSSLError = internal global i64 0, align 8
@ossl_sslctx_type = internal constant %struct.rb_data_type_struct { ptr @.str.186, %struct.anon { ptr @ossl_sslctx_mark, ptr @ossl_sslctx_free, ptr null, ptr null, [1 x ptr] zeroinitializer }, ptr null, ptr null, i64 33 }, align 8

; Function Attrs: nounwind sspstrong uwtable
define internal i64 @ossl_sslctx_add_extra_chain_cert_i(i64 noundef %0, i64 noundef %1, i32 noundef %2, ptr noundef %3, i64 noundef %4) #0 {
  %6 = alloca i64, align 8
  %7 = alloca i64, align 8
  %8 = alloca i32, align 4
  %9 = alloca ptr, align 8
  %10 = alloca i64, align 8
  %11 = alloca ptr, align 8
  %12 = alloca ptr, align 8
  store i64 %0, ptr %6, align 8, !tbaa !14
  store i64 %1, ptr %7, align 8, !tbaa !14
  store i32 %2, ptr %8, align 4, !tbaa !12
  store ptr %3, ptr %9, align 8, !tbaa !32
  store i64 %4, ptr %10, align 8, !tbaa !14
  call void @llvm.lifetime.start.p0(i64 8, ptr %11) #20
  call void @llvm.lifetime.start.p0(i64 8, ptr %12) #20
  br label %13

13:                                               ; preds = %5
  %14 = load i64, ptr %7, align 8, !tbaa !14
  %15 = call ptr @rb_check_typeddata(i64 noundef %14, ptr noundef @ossl_sslctx_type)
  store ptr %15, ptr %12, align 8, !tbaa !18
  br label %16

16:                                               ; preds = %13
  br label %17

17:                                               ; preds = %16
  %18 = load i64, ptr %6, align 8, !tbaa !14
  %19 = call ptr @DupX509CertPtr(i64 noundef %18)
  store ptr %19, ptr %11, align 8, !tbaa !36
  %20 = load ptr, ptr %12, align 8, !tbaa !18
  %21 = load ptr, ptr %11, align 8, !tbaa !36
  %22 = call i64 @SSL_CTX_ctrl(ptr noundef %20, i32 noundef 14, i64 noundef 0, ptr noundef %21)
  %23 = icmp ne i64 %22, 0
  br i1 %23, label %26, label %24

24:                                               ; preds = %17
  %25 = load i64, ptr @eSSLError, align 8, !tbaa !14
  call void (i64, ptr, ...) @ossl_raise(i64 noundef %25, ptr noundef null) #22
  unreachable

26:                                               ; preds = %17
  %27 = load i64, ptr %6, align 8, !tbaa !14
  call void @llvm.lifetime.end.p0(i64 8, ptr %12) #20
  call void @llvm.lifetime.end.p0(i64 8, ptr %11) #20
  ret i64 %27
}