; Function Attrs: nounwind sspstrong uwtable
define internal noundef i64 @ossl_sslctx_add_extra_chain_cert_i(i64 noundef returned %0, i64 noundef %1, i32 %2, ptr readnone captures(none) %3, i64 %4) #0 {
  %6 = tail call ptr @rb_check_typeddata(i64 noundef %1, ptr noundef nonnull @ossl_sslctx_type) #9
  %7 = tail call ptr @DupX509CertPtr(i64 noundef %0) #9
  %8 = tail call i64 @SSL_CTX_ctrl(ptr noundef %6, i32 noundef 14, i64 noundef 0, ptr noundef %7) #9
  %.not = icmp eq i64 %8, 0
  br i1 %.not, label %9, label %11

9:                                                ; preds = %5
  %10 = load i64, ptr @eSSLError, align 8, !tbaa !10
  tail call void (i64, ptr, ...) @ossl_raise(i64 noundef %10, ptr noundef null) #10
  unreachable

11:                                               ; preds = %5
  ret i64 %0
}